target datalayout = "e-m:e-p270:32:32-p271:32:32-p272:64:64-i64:64-i128:128-f80:128-n8:16:32:64-S128"
target triple = "x86_64-pc-linux-gnu"

%struct.H5VL_object_t = type { ptr, ptr, i64 }

@H5_libinit_g = external global i8, align 1
@H5_libterm_g = external global i8, align 1
@.str = private unnamed_addr constant [97 x i8] c"generated/home/dtcxzyw/WorkSpace/Projects/compilers/llvm-opt-benchmark/bench/hdf5/hdf5/src/H5A.c\00", align 1
@H5E_FUNC_g = external global i64, align 8
@H5E_CANTINIT_g = external global i64, align 8
@.str.1 = private unnamed_addr constant [30 x i8] c"library initialization failed\00", align 1
@H5E_CANTSET_g = external global i64, align 8
@.str.2 = private unnamed_addr constant [22 x i8] c"can't set API context\00", align 1
@H5E_ATTR_g = external global i64, align 8
@H5E_CANTCREATE_g = external global i64, align 8
@.str.6 = private unnamed_addr constant [9 x i8] c"app_file\00", align 1
@.str.7 = private unnamed_addr constant [9 x i8] c"app_func\00", align 1
@.str.8 = private unnamed_addr constant [9 x i8] c"app_line\00", align 1
@.str.9 = private unnamed_addr constant [7 x i8] c"loc_id\00", align 1
@.str.14 = private unnamed_addr constant [8 x i8] c"aapl_id\00", align 1
@.str.15 = private unnamed_addr constant [6 x i8] c"es_id\00", align 1
@H5E_CANTDEC_g = external global i64, align 8
@.str.16 = private unnamed_addr constant [38 x i8] c"can't decrement count on attribute ID\00", align 1
@H5E_CANTINSERT_g = external global i64, align 8
@.str.17 = private unnamed_addr constant [34 x i8] c"can't insert token into event set\00", align 1
@.str.19 = private unnamed_addr constant [9 x i8] c"obj_name\00", align 1
@.str.20 = private unnamed_addr constant [8 x i8] c"lapl_id\00", align 1
@.str.22 = private unnamed_addr constant [40 x i8] c"unable to asynchronously open attribute\00", align 1
@__func__.H5Aopen_by_idx_async = private unnamed_addr constant [21 x i8] c"H5Aopen_by_idx_async\00", align 1
@.str.25 = private unnamed_addr constant [18 x i8] c"*s*sIui*sIiIohiii\00", align 1
@.str.26 = private unnamed_addr constant [9 x i8] c"idx_type\00", align 1
@.str.27 = private unnamed_addr constant [6 x i8] c"order\00", align 1
@.str.28 = private unnamed_addr constant [2 x i8] c"n\00", align 1

; Function Attrs: nounwind uwtable
define i64 @H5Aopen_by_idx_async(ptr noundef %0, ptr noundef %1, i32 noundef %2, i64 noundef %3, ptr noundef %4, i32 noundef %5, i32 noundef %6, i64 noundef %7, i64 noundef %8, i64 noundef %9, i64 noundef %10) #0 {
  %12 = alloca ptr, align 8
  %13 = alloca ptr, align 8
  %14 = alloca i32, align 4
  %15 = alloca i64, align 8
  %16 = alloca ptr, align 8
  %17 = alloca i32, align 4
  %18 = alloca i32, align 4
  %19 = alloca i64, align 8
  %20 = alloca i64, align 8
  %21 = alloca i64, align 8
  %22 = alloca i64, align 8
  %23 = alloca ptr, align 8
  %24 = alloca ptr, align 8
  %25 = alloca ptr, align 8
  %26 = alloca i64, align 8
  %27 = alloca i8, align 1
  %28 = alloca i8, align 1
  store ptr %0, ptr %12, align 8
  store ptr %1, ptr %13, align 8
  store i32 %2, ptr %14, align 4
  store i64 %3, ptr %15, align 8
  store ptr %4, ptr %16, align 8
  store i32 %5, ptr %17, align 4
  store i32 %6, ptr %18, align 4
  store i64 %7, ptr %19, align 8
  store i64 %8, ptr %20, align 8
  store i64 %9, ptr %21, align 8
  store i64 %10, ptr %22, align 8
  store ptr null, ptr %23, align 8
  store ptr null, ptr %24, align 8
  store ptr null, ptr %25, align 8
  store i64 -1, ptr %26, align 8
  store i8 0, ptr %27, align 1
  store i8 0, ptr %28, align 1
  %29 = load i8, ptr @H5_libinit_g, align 1
  %30 = trunc i8 %29 to i1
  br i1 %30, label %35, label %31

31:                                               ; preds = %11
  %32 = load i8, ptr @H5_libterm_g, align 1
  %33 = trunc i8 %32 to i1
  %34 = xor i1 %33, true
  br label %35

35:                                               ; preds = %31, %11
  %36 = phi i1 [ false, %11 ], [ %34, %31 ]
  %37 = xor i1 %36, true
  %38 = xor i1 %37, true
  %39 = zext i1 %38 to i32
  %40 = sext i32 %39 to i64
  %41 = icmp ne i64 %40, 0
  br i1 %41, label %42, label %66

42:                                               ; preds = %35
  %43 = call i32 @H5_init_library()
  %44 = icmp slt i32 %43, 0
  %45 = xor i1 %44, true
  %46 = xor i1 %45, true
  %47 = zext i1 %46 to i32
  %48 = sext i32 %47 to i64
  %49 = icmp ne i64 %48, 0
  br i1 %49, label %50, label %65

50:                                               ; preds = %42
  br label %51

51:                                               ; preds = %50
  br label %52

52:                                               ; preds = %51
  br label %53

53:                                               ; preds = %52
  %54 = load i64, ptr @H5E_FUNC_g, align 8
  %55 = load i64, ptr @H5E_CANTINIT_g, align 8
  %56 = call i32 (ptr, ptr, i32, i64, i64, ptr, ...) @H5E_printf_stack(ptr noundef @.str, ptr noundef @__func__.H5Aopen_by_idx_async, i32 noundef 828, i64 noundef %54, i64 noundef %55, ptr noundef @.str.1)
  br label %57

57:                                               ; preds = %53
  store i8 1, ptr %28, align 1
  %58 = load i8, ptr %28, align 1
  %59 = trunc i8 %58 to i1
  %60 = zext i1 %59 to i8
  store i8 %60, ptr %28, align 1
  br label %61

61:                                               ; preds = %57
  br label %62

62:                                               ; preds = %61
  store i64 -1, ptr %26, align 8
  br label %177

63:                                               ; No predecessors!
  br label %64

64:                                               ; preds = %63
  br label %65

65:                                               ; preds = %64, %42
  br label %66

66:                                               ; preds = %65, %35
  %67 = call i32 @H5CX_push()
  %68 = icmp slt i32 %67, 0
  %69 = xor i1 %68, true
  %70 = xor i1 %69, true
  %71 = zext i1 %70 to i32
  %72 = sext i32 %71 to i64
  %73 = icmp ne i64 %72, 0
  br i1 %73, label %74, label %89

74:                                               ; preds = %66
  br label %75

75:                                               ; preds = %74
  br label %76

76:                                               ; preds = %75
  br label %77

77:                                               ; preds = %76
  %78 = load i64, ptr @H5E_FUNC_g, align 8
  %79 = load i64, ptr @H5E_CANTSET_g, align 8
  %80 = call i32 (ptr, ptr, i32, i64, i64, ptr, ...) @H5E_printf_stack(ptr noundef @.str, ptr noundef @__func__.H5Aopen_by_idx_async, i32 noundef 828, i64 noundef %78, i64 noundef %79, ptr noundef @.str.2)
  br label %81

81:                                               ; preds = %77
  store i8 1, ptr %28, align 1
  %82 = load i8, ptr %28, align 1
  %83 = trunc i8 %82 to i1
  %84 = zext i1 %83 to i8
  store i8 %84, ptr %28, align 1
  br label %85

85:                                               ; preds = %81
  br label %86

86:                                               ; preds = %85
  store i64 -1, ptr %26, align 8
  br label %177

87:                                               ; No predecessors!
  br label %88

88:                                               ; preds = %87
  br label %90

89:                                               ; preds = %66
  store i8 1, ptr %27, align 1
  br label %90

90:                                               ; preds = %89, %88
  %91 = call i32 @H5E_clear_stack()
  %92 = load i64, ptr %22, align 8
  %93 = icmp ne i64 0, %92
  br i1 %93, label %94, label %95

94:                                               ; preds = %90
  store ptr %24, ptr %25, align 8
  br label %95

95:                                               ; preds = %94, %90
  %96 = load i64, ptr %15, align 8
  %97 = load ptr, ptr %16, align 8
  %98 = load i32, ptr %17, align 4
  %99 = load i32, ptr %18, align 4
  %100 = load i64, ptr %19, align 8
  %101 = load i64, ptr %20, align 8
  %102 = load i64, ptr %21, align 8
  %103 = load ptr, ptr %25, align 8
  %104 = call i64 @H5A__open_by_idx_api_common(i64 noundef %96, ptr noundef %97, i32 noundef %98, i32 noundef %99, i64 noundef %100, i64 noundef %101, i64 noundef %102, ptr noundef %103, ptr noundef %23)
  store i64 %104, ptr %26, align 8
  %105 = icmp slt i64 %104, 0
  br i1 %105, label %106, label %121

106:                                              ; preds = %95
  br label %107

107:                                              ; preds = %106
  br label %108

108:                                              ; preds = %107
  br label %109

109:                                              ; preds = %108
  %110 = load i64, ptr @H5E_ATTR_g, align 8
  %111 = load i64, ptr @H5E_CANTCREATE_g, align 8
  %112 = call i32 (ptr, ptr, i32, i64, i64, ptr, ...) @H5E_printf_stack(ptr noundef @.str, ptr noundef @__func__.H5Aopen_by_idx_async, i32 noundef 837, i64 noundef %110, i64 noundef %111, ptr noundef @.str.22)
  br label %113

113:                                              ; preds = %109
  store i8 1, ptr %28, align 1
  %114 = load i8, ptr %28, align 1
  %115 = trunc i8 %114 to i1
  %116 = zext i1 %115 to i8
  store i8 %116, ptr %28, align 1
  br label %117

117:                                              ; preds = %113
  br label %118

118:                                              ; preds = %117
  store i64 -1, ptr %26, align 8
  br label %177

119:                                              ; No predecessors!
  br label %120

120:                                              ; preds = %119
  br label %121

121:                                              ; preds = %120, %95
  %122 = load ptr, ptr %24, align 8
  %123 = icmp ne ptr null, %122
  br i1 %123, label %124, label %176

124:                                              ; preds = %121
  %125 = load i64, ptr %22, align 8
  %126 = load ptr, ptr %23, align 8
  %127 = getelementptr inbounds %struct.H5VL_object_t, ptr %126, i32 0, i32 1
  %128 = load ptr, ptr %127, align 8
  %129 = load ptr, ptr %24, align 8
  %130 = load ptr, ptr %12, align 8
  %131 = load ptr, ptr %13, align 8
  %132 = load i32, ptr %14, align 4
  %133 = load i64, ptr %15, align 8
  %134 = load ptr, ptr %16, align 8
  %135 = load i32, ptr %17, align 4
  %136 = load i32, ptr %18, align 4
  %137 = load i64, ptr %19, align 8
  %138 = load i64, ptr %20, align 8
  %139 = load i64, ptr %21, align 8
  %140 = load i64, ptr %22, align 8
  %141 = call i32 (i64, ptr, ptr, ptr, ptr, ...) @H5ES_insert(i64 noundef %125, ptr noundef %128, ptr noundef %129, ptr noundef @__func__.H5Aopen_by_idx_async, ptr noundef @.str.25, ptr noundef @.str.6, ptr noundef %130, ptr noundef @.str.7, ptr noundef %131, ptr noundef @.str.8, i32 noundef %132, ptr noundef @.str.9, i64 noundef %133, ptr noundef @.str.19, ptr noundef %134, ptr noundef @.str.26, i32 noundef %135, ptr noundef @.str.27, i32 noundef %136, ptr noundef @.str.28, i64 noundef %137, ptr noundef @.str.14, i64 noundef %138, ptr noundef @.str.20, i64 noundef %139, ptr noundef @.str.15, i64 noundef %140)
  %142 = icmp slt i32 %141, 0
  br i1 %142, label %143, label %175

143:                                              ; preds = %124
  %144 = load i64, ptr %26, align 8
  %145 = call i32 @H5I_dec_app_ref(i64 noundef %144)
  %146 = icmp slt i32 %145, 0
  br i1 %146, label %147, label %160

147:                                              ; preds = %143
  br label %148

148:                                              ; preds = %147
  br label %149

149:                                              ; preds = %148
  br label %150

150:                                              ; preds = %149
  %151 = load i64, ptr @H5E_ATTR_g, align 8
  %152 = load i64, ptr @H5E_CANTDEC_g, align 8
  %153 = call i32 (ptr, ptr, i32, i64, i64, ptr, ...) @H5E_printf_stack(ptr noundef @.str, ptr noundef @__func__.H5Aopen_by_idx_async, i32 noundef 846, i64 noundef %151, i64 noundef %152, ptr noundef @.str.16)
  br label %154

154:                                              ; preds = %150
  store i8 1, ptr %28, align 1
  %155 = load i8, ptr %28, align 1
  %156 = trunc i8 %155 to i1
  %157 = zext i1 %156 to i8
  store i8 %157, ptr %28, align 1
  br label %158

158:                                              ; preds = %154
  store i64 -1, ptr %26, align 8
  br label %159

159:                                              ; preds = %158
  br label %160

160:                                              ; preds = %159, %143
  br label %161

161:                                              ; preds = %160
  br label %162

162:                                              ; preds = %161
  br label %163

163:                                              ; preds = %162
  %164 = load i64, ptr @H5E_ATTR_g, align 8
  %165 = load i64, ptr @H5E_CANTINSERT_g, align 8
  %166 = call i32 (ptr, ptr, i32, i64, i64, ptr, ...) @H5E_printf_stack(ptr noundef @.str, ptr noundef @__func__.H5Aopen_by_idx_async, i32 noundef 847, i64 noundef %164, i64 noundef %165, ptr noundef @.str.17)
  br label %167

167:                                              ; preds = %163
  store i8 1, ptr %28, align 1
  %168 = load i8, ptr %28, align 1
  %169 = trunc i8 %168 to i1
  %170 = zext i1 %169 to i8
  store i8 %170, ptr %28, align 1
  br label %171

171:                                              ; preds = %167
  br label %172

172:                                              ; preds = %171
  store i64 -1, ptr %26, align 8
  br label %177

173:                                              ; No predecessors!
  br label %174

174:                                              ; preds = %173
  br label %175

175:                                              ; preds = %174, %124
  br label %176

176:                                              ; preds = %175, %121
  br label %177

177:                                              ; preds = %176, %172, %118, %86, %62
  %178 = load i8, ptr %27, align 1
  %179 = trunc i8 %178 to i1
  %180 = xor i1 %179, true
  %181 = xor i1 %180, true
  %182 = zext i1 %181 to i32
  %183 = sext i32 %182 to i64
  %184 = icmp ne i64 %183, 0
  br i1 %184, label %185, label %187

185:                                              ; preds = %177
  %186 = call i32 @H5CX_pop(i1 noundef zeroext true)
  store i8 0, ptr %27, align 1
  br label %187

187:                                              ; preds = %185, %177
  %188 = load i8, ptr %28, align 1
  %189 = trunc i8 %188 to i1
  %190 = xor i1 %189, true
  %191 = xor i1 %190, true
  %192 = zext i1 %191 to i32
  %193 = sext i32 %192 to i64
  %194 = icmp ne i64 %193, 0
  br i1 %194, label %195, label %197

195:                                              ; preds = %187
  %196 = call i32 @H5E_dump_api_stack()
  br label %197

197:                                              ; preds = %195, %187
  %198 = load i64, ptr %26, align 8
  ret i64 %198
}