; Function Attrs: nounwind uwtable
define range(i64 -1, -9223372036854775808) i64 @H5Aopen_by_idx_async(ptr noundef %0, ptr noundef %1, i32 noundef %2, i64 noundef %3, ptr noundef %4, i32 noundef %5, i32 noundef %6, i64 noundef %7, i64 noundef %8, i64 noundef %9, i64 noundef %10) local_unnamed_addr #0 {
  %12 = alloca ptr, align 8
  %13 = alloca ptr, align 8
  store ptr null, ptr %12, align 8
  store ptr null, ptr %13, align 8
  %14 = load i8, ptr @H5_libinit_g, align 1
  %15 = trunc i8 %14 to i1
  %16 = load i8, ptr @H5_libterm_g, align 1
  %17 = trunc i8 %16 to i1
  %18 = select i1 %15, i1 true, i1 %17
  br i1 %18, label %26, label %19

19:                                               ; preds = %11
  %20 = tail call i32 @H5_init_library() #4
  %21 = icmp slt i32 %20, 0
  br i1 %21, label %22, label %26

22:                                               ; preds = %19
  %23 = load i64, ptr @H5E_FUNC_g, align 8
  %24 = load i64, ptr @H5E_CANTINIT_g, align 8
  %25 = tail call i32 (ptr, ptr, i32, i64, i64, ptr, ...) @H5E_printf_stack(ptr noundef nonnull @.str, ptr noundef nonnull @__func__.H5Aopen_by_idx_async, i32 noundef 828, i64 noundef %23, i64 noundef %24, ptr noundef nonnull @.str.1) #4
  br label %.thread43

26:                                               ; preds = %19, %11
  %27 = tail call i32 @H5CX_push() #4
  %28 = icmp slt i32 %27, 0
  br i1 %28, label %29, label %33

29:                                               ; preds = %26
  %30 = load i64, ptr @H5E_FUNC_g, align 8
  %31 = load i64, ptr @H5E_CANTSET_g, align 8
  %32 = tail call i32 (ptr, ptr, i32, i64, i64, ptr, ...) @H5E_printf_stack(ptr noundef nonnull @.str, ptr noundef nonnull @__func__.H5Aopen_by_idx_async, i32 noundef 828, i64 noundef %30, i64 noundef %31, ptr noundef nonnull @.str.2) #4
  br label %.thread43

33:                                               ; preds = %26
  %34 = tail call i32 @H5E_clear_stack() #4
  %.not = icmp eq i64 %10, 0
  %spec.select = select i1 %.not, ptr null, ptr %13
  %35 = call fastcc i64 @H5A__open_by_idx_api_common(i64 noundef %3, ptr noundef %4, i32 noundef %5, i32 noundef %6, i64 noundef %7, i64 noundef %8, i64 noundef %9, ptr noundef %spec.select, ptr noundef nonnull %12)
  %36 = icmp slt i64 %35, 0
  br i1 %36, label %37, label %41

37:                                               ; preds = %33
  %38 = load i64, ptr @H5E_ATTR_g, align 8
  %39 = load i64, ptr @H5E_CANTCREATE_g, align 8
  %40 = call i32 (ptr, ptr, i32, i64, i64, ptr, ...) @H5E_printf_stack(ptr noundef nonnull @.str, ptr noundef nonnull @__func__.H5Aopen_by_idx_async, i32 noundef 837, i64 noundef %38, i64 noundef %39, ptr noundef nonnull @.str.22) #4
  br label %.thread49

41:                                               ; preds = %33
  %42 = load ptr, ptr %13, align 8
  %.not34 = icmp eq ptr %42, null
  br i1 %.not34, label %61, label %43

43:                                               ; preds = %41
  %44 = load ptr, ptr %12, align 8
  %45 = getelementptr inbounds i8, ptr %44, i64 8
  %46 = load ptr, ptr %45, align 8
  %47 = call i32 (i64, ptr, ptr, ptr, ptr, ...) @H5ES_insert(i64 noundef %10, ptr noundef %46, ptr noundef nonnull %42, ptr noundef nonnull @__func__.H5Aopen_by_idx_async, ptr noundef nonnull @.str.25, ptr noundef nonnull @.str.6, ptr noundef %0, ptr noundef nonnull @.str.7, ptr noundef %1, ptr noundef nonnull @.str.8, i32 noundef %2, ptr noundef nonnull @.str.9, i64 noundef %3, ptr noundef nonnull @.str.19, ptr noundef %4, ptr noundef nonnull @.str.26, i32 noundef %5, ptr noundef nonnull @.str.27, i32 noundef %6, ptr noundef nonnull @.str.28, i64 noundef %7, ptr noundef nonnull @.str.14, i64 noundef %8, ptr noundef nonnull @.str.20, i64 noundef %9, ptr noundef nonnull @.str.15, i64 noundef %10) #4
  %48 = icmp slt i32 %47, 0
  br i1 %48, label %49, label %61

49:                                               ; preds = %43
  %50 = call i32 @H5I_dec_app_ref(i64 noundef %35) #4
  %51 = icmp slt i32 %50, 0
  br i1 %51, label %52, label %56

52:                                               ; preds = %49
  %53 = load i64, ptr @H5E_ATTR_g, align 8
  %54 = load i64, ptr @H5E_CANTDEC_g, align 8
  %55 = call i32 (ptr, ptr, i32, i64, i64, ptr, ...) @H5E_printf_stack(ptr noundef nonnull @.str, ptr noundef nonnull @__func__.H5Aopen_by_idx_async, i32 noundef 846, i64 noundef %53, i64 noundef %54, ptr noundef nonnull @.str.16) #4
  br label %56

56:                                               ; preds = %49, %52
  %57 = load i64, ptr @H5E_ATTR_g, align 8
  %58 = load i64, ptr @H5E_CANTINSERT_g, align 8
  %59 = call i32 (ptr, ptr, i32, i64, i64, ptr, ...) @H5E_printf_stack(ptr noundef nonnull @.str, ptr noundef nonnull @__func__.H5Aopen_by_idx_async, i32 noundef 847, i64 noundef %57, i64 noundef %58, ptr noundef nonnull @.str.17) #4
  br label %.thread49

.thread49:                                        ; preds = %56, %37
  %60 = call i32 @H5CX_pop(i1 noundef zeroext true) #4
  br label %.thread43

61:                                               ; preds = %41, %43
  %62 = call i32 @H5CX_pop(i1 noundef zeroext true) #4
  br label %64

.thread43:                                        ; preds = %29, %22, %.thread49
  %63 = call i32 @H5E_dump_api_stack() #4
  br label %64

64:                                               ; preds = %61, %.thread43
  %.0303846 = phi i64 [ -1, %.thread43 ], [ %35, %61 ]
  ret i64 %.0303846
}